; ModuleID = 'source-C-CXX/44/1119.c'
source_filename = "source-C-CXX/44/1119.c"
target datalayout = "e-m:e-p270:32:32-p271:32:32-p272:64:64-i64:64-f80:128-n8:16:32:64-S128"
target triple = "x86_64-pc-linux-gnu"

@.str = private unnamed_addr constant [6 x i8] c"%s %s\00", align 1
@.str.1 = private unnamed_addr constant [4 x i8] c"%d\0A\00", align 1

; Function Attrs: nofree nounwind sspstrong uwtable
define dso_local i32 @main() local_unnamed_addr #0 {
  %1 = alloca [50 x i8], align 16
  %2 = alloca [50 x i8], align 16
  %3 = getelementptr inbounds [50 x i8], [50 x i8]* %1, i64 0, i64 0
  call void @llvm.lifetime.start.p0i8(i64 50, i8* nonnull %3) #4
  %4 = getelementptr inbounds [50 x i8], [50 x i8]* %2, i64 0, i64 0
  call void @llvm.lifetime.start.p0i8(i64 50, i8* nonnull %4) #4
  %5 = call i32 (i8*, ...) @__isoc99_scanf(i8* getelementptr inbounds ([6 x i8], [6 x i8]* @.str, i64 0, i64 0), i8* nonnull %3, i8* nonnull %4)
  %6 = call i64 @strlen(i8* noundef nonnull %3) #5
  %7 = trunc i64 %6 to i32
  %8 = call i64 @strlen(i8* noundef nonnull %4) #5
  %9 = trunc i64 %8 to i32
  %10 = load i8, i8* %3, align 16
  %11 = icmp sgt i32 %9, 0
  br i1 %11, label %12, label %53

12:                                               ; preds = %0
  %13 = icmp sgt i32 %7, 0
  %14 = and i64 %8, 4294967295
  br i1 %13, label %17, label %15

15:                                               ; preds = %12
  %16 = icmp eq i32 %7, 0
  br label %44

17:                                               ; preds = %12
  %18 = and i64 %6, 4294967295
  br label %19

19:                                               ; preds = %17, %38
  %20 = phi i64 [ 0, %17 ], [ %39, %38 ]
  %21 = phi i32 [ undef, %17 ], [ %36, %38 ]
  %22 = getelementptr inbounds [50 x i8], [50 x i8]* %2, i64 0, i64 %20
  %23 = load i8, i8* %22, align 1, !tbaa !5
  %24 = icmp eq i8 %23, %10
  br i1 %24, label %25, label %35

25:                                               ; preds = %19, %41
  %26 = phi i64 [ %42, %41 ], [ 0, %19 ]
  %27 = add nuw nsw i64 %26, %20
  %28 = getelementptr inbounds [50 x i8], [50 x i8]* %2, i64 0, i64 %27
  %29 = load i8, i8* %28, align 1, !tbaa !5
  %30 = getelementptr inbounds [50 x i8], [50 x i8]* %1, i64 0, i64 %26
  %31 = load i8, i8* %30, align 1, !tbaa !5
  %32 = icmp eq i8 %29, %31
  br i1 %32, label %41, label %33

33:                                               ; preds = %25
  %34 = trunc i64 %26 to i32
  br label %35

35:                                               ; preds = %33, %19
  %36 = phi i32 [ %21, %19 ], [ %34, %33 ]
  %37 = icmp eq i32 %36, %7
  br i1 %37, label %46, label %38

38:                                               ; preds = %35
  %39 = add nuw nsw i64 %20, 1
  %40 = icmp eq i64 %39, %14
  br i1 %40, label %53, label %19, !llvm.loop !8

41:                                               ; preds = %25
  %42 = add nuw nsw i64 %26, 1
  %43 = icmp eq i64 %42, %18
  br i1 %43, label %46, label %25, !llvm.loop !10

44:                                               ; preds = %15, %50
  %45 = phi i64 [ 0, %15 ], [ %51, %50 ]
  br i1 %16, label %46, label %50

46:                                               ; preds = %44, %35, %41
  %47 = phi i64 [ %20, %41 ], [ %20, %35 ], [ %45, %44 ]
  %48 = trunc i64 %47 to i32
  %49 = call i32 (i8*, ...) @printf(i8* nonnull dereferenceable(1) getelementptr inbounds ([4 x i8], [4 x i8]* @.str.1, i64 0, i64 0), i32 %48)
  br label %53

50:                                               ; preds = %44
  %51 = add nuw nsw i64 %45, 1
  %52 = icmp eq i64 %51, %14
  br i1 %52, label %53, label %44, !llvm.loop !8

53:                                               ; preds = %50, %38, %0, %46
  call void @llvm.lifetime.end.p0i8(i64 50, i8* nonnull %4) #4
  call void @llvm.lifetime.end.p0i8(i64 50, i8* nonnull %3) #4
  ret i32 0
}

; Function Attrs: argmemonly mustprogress nofree nosync nounwind willreturn
declare void @llvm.lifetime.start.p0i8(i64 immarg, i8* nocapture) #1

; Function Attrs: nofree nounwind
declare noundef i32 @__isoc99_scanf(i8* nocapture noundef readonly, ...) local_unnamed_addr #2

; Function Attrs: argmemonly mustprogress nofree nounwind readonly willreturn
declare i64 @strlen(i8* nocapture) local_unnamed_addr #3

; Function Attrs: nofree nounwind
declare noundef i32 @printf(i8* nocapture noundef readonly, ...) local_unnamed_addr #2

; Function Attrs: argmemonly mustprogress nofree nosync nounwind willreturn
declare void @llvm.lifetime.end.p0i8(i64 immarg, i8* nocapture) #1


!llvm.module.flags = !{!0, !1, !2, !3}
!llvm.ident = !{!4}

!0 = !{i32 1, !"wchar_size", i32 4}
!1 = !{i32 7, !"PIC Level", i32 2}
!2 = !{i32 7, !"PIE Level", i32 2}
!3 = !{i32 7, !"uwtable", i32 1}
!4 = !{!"clang version 13.0.0"}
!5 = !{!6, !6, i64 0}
!6 = !{!"omnipotent char", !7, i64 0}
!7 = !{!"Simple C/C++ TBAA"}
!8 = distinct !{!8, !9}
!9 = !{!"llvm.loop.mustprogress"}
!10 = distinct !{!10, !9}
